target datalayout = "e-m:e-p270:32:32-p271:32:32-p272:64:64-i64:64-i128:128-f80:128-n8:16:32:64-S128"
target triple = "x86_64-pc-linux-gnu"

%struct.Mio_Cell2_t_ = type { ptr, ptr, i32, float, i64, i64, i32, [6 x i32], ptr }
%struct.Nf_Cfg_t_ = type { i32 }
%struct.Vec_Int_t_ = type { i32, i32, ptr }
%struct.Nf_Man_t_ = type { ptr, ptr, ptr, ptr, ptr, ptr, i32, ptr, %struct.Vec_Ptr_t_, %struct.Vec_Int_t_, %struct.Vec_Int_t_, %struct.Vec_Flt_t_, %struct.Vec_Int_t_, %struct.Vec_Flt_t_, %struct.Vec_Int_t_, %struct.Vec_Int_t_, i32, i32, i32, i32, i32, i64, float, i64, [6 x double], i32 }
%struct.Vec_Ptr_t_ = type { i32, i32, ptr }
%struct.Vec_Flt_t_ = type { i32, i32, ptr }
%struct.Nf_Obj_t_ = type { [2 x [2 x %struct.Nf_Mat_t_]] }
%struct.Nf_Mat_t_ = type { i32, %struct.Nf_Cfg_t_, i32, float }

; Function Attrs: inlinehint nounwind uwtable
define internal ptr @Vec_PtrEntry(ptr noundef %0, i32 noundef %1) #2 {
  %3 = alloca ptr, align 8
  %4 = alloca i32, align 4
  store ptr %0, ptr %3, align 8, !tbaa !119
  store i32 %1, ptr %4, align 4, !tbaa !17
  %5 = load ptr, ptr %3, align 8, !tbaa !119
  %6 = getelementptr inbounds nuw %struct.Vec_Ptr_t_, ptr %5, i32 0, i32 2
  %7 = load ptr, ptr %6, align 8, !tbaa !121
  %8 = load i32, ptr %4, align 4, !tbaa !17
  %9 = sext i32 %8 to i64
  %10 = getelementptr inbounds ptr, ptr %7, i64 %9
  %11 = load ptr, ptr %10, align 8, !tbaa !135
  ret ptr %11
}

; Function Attrs: inlinehint nounwind uwtable
define internal ptr @Nf_ManCutSet(ptr noundef %0, i32 noundef %1) #2 {
  %3 = alloca ptr, align 8
  %4 = alloca i32, align 4
  store ptr %0, ptr %3, align 8, !tbaa !61
  store i32 %1, ptr %4, align 4, !tbaa !17
  %5 = load ptr, ptr %3, align 8, !tbaa !61
  %6 = getelementptr inbounds nuw %struct.Nf_Man_t_, ptr %5, i32 0, i32 8
  %7 = load i32, ptr %4, align 4, !tbaa !17
  %8 = ashr i32 %7, 16
  %9 = call ptr @Vec_PtrEntry(ptr noundef %6, i32 noundef %8)
  %10 = load i32, ptr %4, align 4, !tbaa !17
  %11 = and i32 %10, 65535
  %12 = sext i32 %11 to i64
  %13 = getelementptr inbounds i32, ptr %9, i64 %12
  ret ptr %13
}

; Function Attrs: inlinehint nounwind uwtable
define internal i32 @Vec_IntEntry(ptr noundef %0, i32 noundef %1) #2 {
  %3 = alloca ptr, align 8
  %4 = alloca i32, align 4
  store ptr %0, ptr %3, align 8, !tbaa !26
  store i32 %1, ptr %4, align 4, !tbaa !17
  %5 = load ptr, ptr %3, align 8, !tbaa !26
  %6 = getelementptr inbounds nuw %struct.Vec_Int_t_, ptr %5, i32 0, i32 2
  %7 = load ptr, ptr %6, align 8, !tbaa !46
  %8 = load i32, ptr %4, align 4, !tbaa !17
  %9 = sext i32 %8 to i64
  %10 = getelementptr inbounds i32, ptr %7, i64 %9
  %11 = load i32, ptr %10, align 4, !tbaa !17
  ret i32 %11
}

; Function Attrs: inlinehint nounwind uwtable
define internal ptr @Nf_ManObj(ptr noundef %0, i32 noundef %1) #2 {
  %3 = alloca ptr, align 8
  %4 = alloca i32, align 4
  store ptr %0, ptr %3, align 8, !tbaa !61
  store i32 %1, ptr %4, align 4, !tbaa !17
  %5 = load ptr, ptr %3, align 8, !tbaa !61
  %6 = getelementptr inbounds nuw %struct.Nf_Man_t_, ptr %5, i32 0, i32 7
  %7 = load ptr, ptr %6, align 8, !tbaa !104
  %8 = load i32, ptr %4, align 4, !tbaa !17
  %9 = sext i32 %8 to i64
  %10 = getelementptr inbounds %struct.Nf_Obj_t_, ptr %7, i64 %9
  ret ptr %10
}

; Function Attrs: inlinehint nounwind uwtable
define internal ptr @Vec_IntEntryP(ptr noundef %0, i32 noundef %1) #2 {
  %3 = alloca ptr, align 8
  %4 = alloca i32, align 4
  store ptr %0, ptr %3, align 8, !tbaa !26
  store i32 %1, ptr %4, align 4, !tbaa !17
  %5 = load ptr, ptr %3, align 8, !tbaa !26
  %6 = getelementptr inbounds nuw %struct.Vec_Int_t_, ptr %5, i32 0, i32 2
  %7 = load ptr, ptr %6, align 8, !tbaa !46
  %8 = load i32, ptr %4, align 4, !tbaa !17
  %9 = sext i32 %8 to i64
  %10 = getelementptr inbounds i32, ptr %7, i64 %9
  ret ptr %10
}

; Function Attrs: inlinehint nounwind uwtable
define internal i32 @Abc_Var2Lit(i32 noundef %0, i32 noundef %1) #2 {
  %3 = alloca i32, align 4
  %4 = alloca i32, align 4
  store i32 %0, ptr %3, align 4, !tbaa !17
  store i32 %1, ptr %4, align 4, !tbaa !17
  %5 = load i32, ptr %3, align 4, !tbaa !17
  %6 = load i32, ptr %3, align 4, !tbaa !17
  %7 = add nsw i32 %5, %6
  %8 = load i32, ptr %4, align 4, !tbaa !17
  %9 = add nsw i32 %7, %8
  ret i32 %9
}

; Function Attrs: inlinehint nounwind uwtable
define internal ptr @Nf_ManCell(ptr noundef %0, i32 noundef %1) #2 {
  %3 = alloca ptr, align 8
  %4 = alloca i32, align 4
  store ptr %0, ptr %3, align 8, !tbaa !61
  store i32 %1, ptr %4, align 4, !tbaa !17
  %5 = load ptr, ptr %3, align 8, !tbaa !61
  %6 = getelementptr inbounds nuw %struct.Nf_Man_t_, ptr %5, i32 0, i32 5
  %7 = load ptr, ptr %6, align 8, !tbaa !63
  %8 = load i32, ptr %4, align 4, !tbaa !17
  %9 = sext i32 %8 to i64
  %10 = getelementptr inbounds %struct.Mio_Cell2_t_, ptr %7, i64 %9
  ret ptr %10
}

; Function Attrs: inlinehint nounwind uwtable
define internal i32 @Nf_CfgCompl(i32 %0, i32 noundef %1) #2 {
  %3 = alloca %struct.Nf_Cfg_t_, align 4
  %4 = alloca i32, align 4
  %5 = getelementptr inbounds nuw %struct.Nf_Cfg_t_, ptr %3, i32 0, i32 0
  store i32 %0, ptr %5, align 4
  store i32 %1, ptr %4, align 4, !tbaa !17
  %6 = load i32, ptr %3, align 4
  %7 = lshr i32 %6, 1
  %8 = and i32 %7, 127
  %9 = load i32, ptr %4, align 4, !tbaa !17
  %10 = ashr i32 %8, %9
  %11 = and i32 %10, 1
  ret i32 %11
}

; Function Attrs: inlinehint nounwind uwtable
define internal i32 @Nf_CfgVar(i32 %0, i32 noundef %1) #2 {
  %3 = alloca %struct.Nf_Cfg_t_, align 4
  %4 = alloca i32, align 4
  %5 = getelementptr inbounds nuw %struct.Nf_Cfg_t_, ptr %3, i32 0, i32 0
  store i32 %0, ptr %5, align 4
  store i32 %1, ptr %4, align 4, !tbaa !17
  %6 = load i32, ptr %3, align 4
  %7 = lshr i32 %6, 8
  %8 = load i32, ptr %4, align 4, !tbaa !17
  %9 = shl i32 %8, 2
  %10 = ashr i32 %7, %9
  %11 = and i32 %10, 15
  ret i32 %11
}

; Function Attrs: inlinehint nounwind uwtable
define internal ptr @Nf_CutLeaves(ptr noundef %0) #2 {
  %2 = alloca ptr, align 8
  store ptr %0, ptr %2, align 8, !tbaa !8
  %3 = load ptr, ptr %2, align 8, !tbaa !8
  %4 = getelementptr inbounds i32, ptr %3, i64 1
  ret ptr %4
}

; Function Attrs: inlinehint nounwind uwtable
define internal i32 @Nf_CutSize(ptr noundef %0) #2 {
  %2 = alloca ptr, align 8
  store ptr %0, ptr %2, align 8, !tbaa !8
  %3 = load ptr, ptr %2, align 8, !tbaa !8
  %4 = getelementptr inbounds i32, ptr %3, i64 0
  %5 = load i32, ptr %4, align 4, !tbaa !17
  %6 = and i32 %5, 31
  ret i32 %6
}

; Function Attrs: inlinehint nounwind uwtable
define internal ptr @Nf_CutFromHandle(ptr noundef %0, i32 noundef %1) #2 {
  %3 = alloca ptr, align 8
  %4 = alloca i32, align 4
  store ptr %0, ptr %3, align 8, !tbaa !8
  store i32 %1, ptr %4, align 4, !tbaa !17
  %5 = load ptr, ptr %3, align 8, !tbaa !8
  %6 = load i32, ptr %4, align 4, !tbaa !17
  %7 = sext i32 %6 to i64
  %8 = getelementptr inbounds i32, ptr %5, i64 %7
  ret ptr %8
}

; Function Attrs: inlinehint nounwind uwtable
define internal ptr @Nf_ObjCutSet(ptr noundef %0, i32 noundef %1) #2 {
  %3 = alloca ptr, align 8
  %4 = alloca i32, align 4
  store ptr %0, ptr %3, align 8, !tbaa !61
  store i32 %1, ptr %4, align 4, !tbaa !17
  %5 = load ptr, ptr %3, align 8, !tbaa !61
  %6 = load ptr, ptr %3, align 8, !tbaa !61
  %7 = load i32, ptr %4, align 4, !tbaa !17
  %8 = call i32 @Nf_ObjCutSetId(ptr noundef %6, i32 noundef %7)
  %9 = call ptr @Nf_ManCutSet(ptr noundef %5, i32 noundef %8)
  ret ptr %9
}

; Function Attrs: inlinehint nounwind uwtable
define internal i32 @Nf_ObjCutSetId(ptr noundef %0, i32 noundef %1) #2 {
  %3 = alloca ptr, align 8
  %4 = alloca i32, align 4
  store ptr %0, ptr %3, align 8, !tbaa !61
  store i32 %1, ptr %4, align 4, !tbaa !17
  %5 = load ptr, ptr %3, align 8, !tbaa !61
  %6 = getelementptr inbounds nuw %struct.Nf_Man_t_, ptr %5, i32 0, i32 9
  %7 = load i32, ptr %4, align 4, !tbaa !17
  %8 = call i32 @Vec_IntEntry(ptr noundef %6, i32 noundef %7)
  ret i32 %8
}

; Function Attrs: inlinehint nounwind uwtable
define internal ptr @Nf_ObjMatchD(ptr noundef %0, i32 noundef %1, i32 noundef %2) #2 {
  %4 = alloca ptr, align 8
  %5 = alloca i32, align 4
  %6 = alloca i32, align 4
  store ptr %0, ptr %4, align 8, !tbaa !61
  store i32 %1, ptr %5, align 4, !tbaa !17
  store i32 %2, ptr %6, align 4, !tbaa !17
  %7 = load ptr, ptr %4, align 8, !tbaa !61
  %8 = load i32, ptr %5, align 4, !tbaa !17
  %9 = call ptr @Nf_ManObj(ptr noundef %7, i32 noundef %8)
  %10 = getelementptr inbounds nuw %struct.Nf_Obj_t_, ptr %9, i32 0, i32 0
  %11 = load i32, ptr %6, align 4, !tbaa !17
  %12 = sext i32 %11 to i64
  %13 = getelementptr inbounds [2 x [2 x %struct.Nf_Mat_t_]], ptr %10, i64 0, i64 %12
  %14 = getelementptr inbounds [2 x %struct.Nf_Mat_t_], ptr %13, i64 0, i64 0
  ret ptr %14
}

; Function Attrs: inlinehint nounwind uwtable
define internal i32 @Nf_ObjMapRefDec(ptr noundef %0, i32 noundef %1, i32 noundef %2) #2 {
  %4 = alloca ptr, align 8
  %5 = alloca i32, align 4
  %6 = alloca i32, align 4
  store ptr %0, ptr %4, align 8, !tbaa !61
  store i32 %1, ptr %5, align 4, !tbaa !17
  store i32 %2, ptr %6, align 4, !tbaa !17
  %7 = load ptr, ptr %4, align 8, !tbaa !61
  %8 = getelementptr inbounds nuw %struct.Nf_Man_t_, ptr %7, i32 0, i32 10
  %9 = load i32, ptr %5, align 4, !tbaa !17
  %10 = load i32, ptr %6, align 4, !tbaa !17
  %11 = call i32 @Abc_Var2Lit(i32 noundef %9, i32 noundef %10)
  %12 = call ptr @Vec_IntEntryP(ptr noundef %8, i32 noundef %11)
  %13 = load i32, ptr %12, align 4, !tbaa !17
  %14 = add nsw i32 %13, -1
  store i32 %14, ptr %12, align 4, !tbaa !17
  ret i32 %14
}

; Function Attrs: nounwind uwtable
define i64 @Nf_MatchDeref_rec(ptr noundef %0, i32 noundef %1, i32 noundef %2, ptr noundef %3) #0 {
  %5 = alloca i64, align 8
  %6 = alloca ptr, align 8
  %7 = alloca i32, align 4
  %8 = alloca i32, align 4
  %9 = alloca ptr, align 8
  %10 = alloca i64, align 8
  %11 = alloca i32, align 4
  %12 = alloca i32, align 4
  %13 = alloca i32, align 4
  %14 = alloca ptr, align 8
  %15 = alloca i32, align 4
  store ptr %0, ptr %6, align 8, !tbaa !61
  store i32 %1, ptr %7, align 4, !tbaa !17
  store i32 %2, ptr %8, align 4, !tbaa !17
  store ptr %3, ptr %9, align 8, !tbaa !193
  call void @llvm.lifetime.start.p0(i64 8, ptr %10) #13
  store i64 0, ptr %10, align 8, !tbaa !25
  call void @llvm.lifetime.start.p0(i64 4, ptr %11) #13
  call void @llvm.lifetime.start.p0(i64 4, ptr %12) #13
  call void @llvm.lifetime.start.p0(i64 4, ptr %13) #13
  call void @llvm.lifetime.start.p0(i64 8, ptr %14) #13
  %16 = load ptr, ptr %9, align 8, !tbaa !193
  %17 = load i32, ptr %16, align 4
  %18 = lshr i32 %17, 30
  %19 = and i32 %18, 1
  %20 = icmp ne i32 %19, 0
  br i1 %20, label %21, label %53

21:                                               ; preds = %4
  %22 = load ptr, ptr %6, align 8, !tbaa !61
  %23 = load i32, ptr %7, align 4, !tbaa !17
  %24 = load i32, ptr %8, align 4, !tbaa !17
  %25 = icmp ne i32 %24, 0
  %26 = xor i1 %25, true
  %27 = zext i1 %26 to i32
  %28 = call i32 @Nf_ObjMapRefDec(ptr noundef %22, i32 noundef %23, i32 noundef %27)
  %29 = icmp ne i32 %28, 0
  br i1 %29, label %47, label %30

30:                                               ; preds = %21
  %31 = load ptr, ptr %6, align 8, !tbaa !61
  %32 = load i32, ptr %7, align 4, !tbaa !17
  %33 = load i32, ptr %8, align 4, !tbaa !17
  %34 = icmp ne i32 %33, 0
  %35 = xor i1 %34, true
  %36 = zext i1 %35 to i32
  %37 = load ptr, ptr %6, align 8, !tbaa !61
  %38 = load i32, ptr %7, align 4, !tbaa !17
  %39 = load i32, ptr %8, align 4, !tbaa !17
  %40 = icmp ne i32 %39, 0
  %41 = xor i1 %40, true
  %42 = zext i1 %41 to i32
  %43 = call ptr @Nf_ObjMatchD(ptr noundef %37, i32 noundef %38, i32 noundef %42)
  %44 = call i64 @Nf_MatchDeref_rec(ptr noundef %31, i32 noundef %32, i32 noundef %36, ptr noundef %43)
  %45 = load i64, ptr %10, align 8, !tbaa !25
  %46 = add i64 %45, %44
  store i64 %46, ptr %10, align 8, !tbaa !25
  br label %47

47:                                               ; preds = %30, %21
  %48 = load i64, ptr %10, align 8, !tbaa !25
  %49 = load ptr, ptr %6, align 8, !tbaa !61
  %50 = getelementptr inbounds nuw %struct.Nf_Man_t_, ptr %49, i32 0, i32 21
  %51 = load i64, ptr %50, align 8, !tbaa !113
  %52 = add i64 %48, %51
  store i64 %52, ptr %5, align 8
  store i32 1, ptr %15, align 4
  br label %126

53:                                               ; preds = %4
  %54 = load ptr, ptr %6, align 8, !tbaa !61
  %55 = load i32, ptr %7, align 4, !tbaa !17
  %56 = call i32 @Nf_ObjCutSetId(ptr noundef %54, i32 noundef %55)
  %57 = icmp eq i32 %56, 0
  br i1 %57, label %58, label %59

58:                                               ; preds = %53
  store i64 0, ptr %5, align 8
  store i32 1, ptr %15, align 4
  br label %126

59:                                               ; preds = %53
  %60 = load ptr, ptr %6, align 8, !tbaa !61
  %61 = load i32, ptr %7, align 4, !tbaa !17
  %62 = call ptr @Nf_ObjCutSet(ptr noundef %60, i32 noundef %61)
  %63 = load ptr, ptr %9, align 8, !tbaa !193
  %64 = load i32, ptr %63, align 4
  %65 = lshr i32 %64, 20
  %66 = and i32 %65, 1023
  %67 = call ptr @Nf_CutFromHandle(ptr noundef %62, i32 noundef %66)
  store ptr %67, ptr %14, align 8, !tbaa !8
  store i32 0, ptr %11, align 4, !tbaa !17
  br label %68

68:                                               ; preds = %113, %59
  %69 = load i32, ptr %11, align 4, !tbaa !17
  %70 = load ptr, ptr %14, align 8, !tbaa !8
  %71 = call i32 @Nf_CutSize(ptr noundef %70)
  %72 = icmp slt i32 %69, %71
  br i1 %72, label %73, label %93

73:                                               ; preds = %68
  %74 = load ptr, ptr %14, align 8, !tbaa !8
  %75 = call ptr @Nf_CutLeaves(ptr noundef %74)
  %76 = load ptr, ptr %9, align 8, !tbaa !193
  %77 = getelementptr inbounds nuw %struct.Nf_Mat_t_, ptr %76, i32 0, i32 1
  %78 = load i32, ptr %11, align 4, !tbaa !17
  %79 = getelementptr inbounds nuw %struct.Nf_Cfg_t_, ptr %77, i32 0, i32 0
  %80 = load i32, ptr %79, align 4
  %81 = call i32 @Nf_CfgVar(i32 %80, i32 noundef %78)
  %82 = sext i32 %81 to i64
  %83 = getelementptr inbounds i32, ptr %75, i64 %82
  %84 = load i32, ptr %83, align 4, !tbaa !17
  store i32 %84, ptr %12, align 4, !tbaa !17
  %85 = icmp ne i32 %84, 0
  br i1 %85, label %86, label %93

86:                                               ; preds = %73
  %87 = load ptr, ptr %9, align 8, !tbaa !193
  %88 = getelementptr inbounds nuw %struct.Nf_Mat_t_, ptr %87, i32 0, i32 1
  %89 = load i32, ptr %11, align 4, !tbaa !17
  %90 = getelementptr inbounds nuw %struct.Nf_Cfg_t_, ptr %88, i32 0, i32 0
  %91 = load i32, ptr %90, align 4
  %92 = call i32 @Nf_CfgCompl(i32 %91, i32 noundef %89)
  store i32 %92, ptr %13, align 4, !tbaa !17
  br label %93

93:                                               ; preds = %86, %73, %68
  %94 = phi i1 [ false, %73 ], [ false, %68 ], [ true, %86 ]
  br i1 %94, label %95, label %116

95:                                               ; preds = %93
  %96 = load ptr, ptr %6, align 8, !tbaa !61
  %97 = load i32, ptr %12, align 4, !tbaa !17
  %98 = load i32, ptr %13, align 4, !tbaa !17
  %99 = call i32 @Nf_ObjMapRefDec(ptr noundef %96, i32 noundef %97, i32 noundef %98)
  %100 = icmp ne i32 %99, 0
  br i1 %100, label %112, label %101

101:                                              ; preds = %95
  %102 = load ptr, ptr %6, align 8, !tbaa !61
  %103 = load i32, ptr %12, align 4, !tbaa !17
  %104 = load i32, ptr %13, align 4, !tbaa !17
  %105 = load ptr, ptr %6, align 8, !tbaa !61
  %106 = load i32, ptr %12, align 4, !tbaa !17
  %107 = load i32, ptr %13, align 4, !tbaa !17
  %108 = call ptr @Nf_ObjMatchD(ptr noundef %105, i32 noundef %106, i32 noundef %107)
  %109 = call i64 @Nf_MatchDeref_rec(ptr noundef %102, i32 noundef %103, i32 noundef %104, ptr noundef %108)
  %110 = load i64, ptr %10, align 8, !tbaa !25
  %111 = add i64 %110, %109
  store i64 %111, ptr %10, align 8, !tbaa !25
  br label %112

112:                                              ; preds = %101, %95
  br label %113

113:                                              ; preds = %112
  %114 = load i32, ptr %11, align 4, !tbaa !17
  %115 = add nsw i32 %114, 1
  store i32 %115, ptr %11, align 4, !tbaa !17
  br label %68, !llvm.loop !233

116:                                              ; preds = %93
  %117 = load i64, ptr %10, align 8, !tbaa !25
  %118 = load ptr, ptr %6, align 8, !tbaa !61
  %119 = load ptr, ptr %9, align 8, !tbaa !193
  %120 = load i32, ptr %119, align 4
  %121 = and i32 %120, 1048575
  %122 = call ptr @Nf_ManCell(ptr noundef %118, i32 noundef %121)
  %123 = getelementptr inbounds nuw %struct.Mio_Cell2_t_, ptr %122, i32 0, i32 4
  %124 = load i64, ptr %123, align 8, !tbaa !112
  %125 = add i64 %117, %124
  store i64 %125, ptr %5, align 8
  store i32 1, ptr %15, align 4
  br label %126

126:                                              ; preds = %116, %58, %47
  call void @llvm.lifetime.end.p0(i64 8, ptr %14) #13
  call void @llvm.lifetime.end.p0(i64 4, ptr %13) #13
  call void @llvm.lifetime.end.p0(i64 4, ptr %12) #13
  call void @llvm.lifetime.end.p0(i64 4, ptr %11) #13
  call void @llvm.lifetime.end.p0(i64 8, ptr %10) #13
  %127 = load i64, ptr %5, align 8
  ret i64 %127
}