; Function Attrs: nofree nosync nounwind memory(readwrite, inaccessiblemem: none) uwtable
define i64 @Nf_MatchDeref_rec(ptr noundef %0, i32 noundef %1, i32 noundef %2, ptr noundef readonly captures(none) %3) local_unnamed_addr #14 {
  %5 = load i32, ptr %3, align 4
  %6 = and i32 %5, 1073741824
  %.not = icmp eq i32 %6, 0
  br i1 %.not, label %27, label %7

7:                                                ; preds = %4
  %.not44 = icmp eq i32 %2, 0
  %8 = zext i1 %.not44 to i32
  %9 = getelementptr i8, ptr %0, i64 104
  %.val52 = load ptr, ptr %9, align 8, !tbaa !25
  %10 = shl nsw i32 %1, 1
  %11 = or disjoint i32 %10, %8
  %12 = sext i32 %11 to i64
  %13 = getelementptr inbounds i32, ptr %.val52, i64 %12
  %14 = load i32, ptr %13, align 4, !tbaa !13
  %15 = add nsw i32 %14, -1
  store i32 %15, ptr %13, align 4, !tbaa !13
  %.not45 = icmp eq i32 %15, 0
  br i1 %.not45, label %16, label %23

16:                                               ; preds = %7
  %17 = getelementptr i8, ptr %0, i64 56
  %.val46 = load ptr, ptr %17, align 8, !tbaa !105
  %18 = sext i32 %1 to i64
  %19 = getelementptr inbounds %struct.Nf_Obj_t_, ptr %.val46, i64 %18
  %20 = zext i1 %.not44 to i64
  %21 = getelementptr inbounds nuw [2 x [2 x %struct.Nf_Mat_t_]], ptr %19, i64 0, i64 %20
  %22 = tail call i64 @Nf_MatchDeref_rec(ptr noundef nonnull %0, i32 noundef %1, i32 noundef %8, ptr noundef %21)
  br label %23

23:                                               ; preds = %16, %7
  %.039 = phi i64 [ 0, %7 ], [ %22, %16 ]
  %24 = getelementptr inbounds nuw i8, ptr %0, i64 216
  %25 = load i64, ptr %24, align 8, !tbaa !121
  %26 = add i64 %25, %.039
  br label %89

27:                                               ; preds = %4
  %28 = getelementptr i8, ptr %0, i64 88
  %.val47 = load ptr, ptr %28, align 8, !tbaa !25
  %29 = sext i32 %1 to i64
  %30 = getelementptr inbounds i32, ptr %.val47, i64 %29
  %31 = load i32, ptr %30, align 4, !tbaa !13
  %32 = icmp eq i32 %31, 0
  br i1 %32, label %89, label %33

33:                                               ; preds = %27
  %34 = getelementptr i8, ptr %0, i64 72
  %.val48 = load ptr, ptr %34, align 8, !tbaa !108
  %35 = ashr i32 %31, 16
  %36 = sext i32 %35 to i64
  %37 = getelementptr inbounds ptr, ptr %.val48, i64 %36
  %38 = load ptr, ptr %37, align 8, !tbaa !124
  %39 = and i32 %31, 65535
  %40 = zext nneg i32 %39 to i64
  %41 = getelementptr inbounds nuw i32, ptr %38, i64 %40
  %42 = lshr i32 %5, 20
  %43 = and i32 %42, 1023
  %44 = zext nneg i32 %43 to i64
  %45 = getelementptr inbounds nuw i32, ptr %41, i64 %44
  %46 = getelementptr inbounds nuw i8, ptr %45, i64 4
  %47 = getelementptr inbounds nuw i8, ptr %3, i64 4
  %.val5054 = load i32, ptr %45, align 4, !tbaa !13
  %48 = and i32 %.val5054, 31
  %.not59 = icmp eq i32 %48, 0
  br i1 %.not59, label %.critedge, label %.lr.ph

.lr.ph:                                           ; preds = %33
  %49 = getelementptr i8, ptr %0, i64 104
  %50 = getelementptr i8, ptr %0, i64 56
  br label %51

51:                                               ; preds = %.lr.ph, %78
  %.156 = phi i64 [ 0, %.lr.ph ], [ %.2, %78 ]
  %.04055 = phi i32 [ 0, %.lr.ph ], [ %79, %78 ]
  %52 = load i32, ptr %47, align 4
  %53 = lshr i32 %52, 8
  %54 = shl nuw nsw i32 %.04055, 2
  %55 = lshr i32 %53, %54
  %56 = and i32 %55, 15
  %57 = zext nneg i32 %56 to i64
  %58 = getelementptr inbounds nuw i32, ptr %46, i64 %57
  %59 = load i32, ptr %58, align 4, !tbaa !13
  %.not42 = icmp eq i32 %59, 0
  br i1 %.not42, label %.critedge.loopexit, label %60

60:                                               ; preds = %51
  %61 = lshr i32 %52, 1
  %62 = and i32 %61, 127
  %63 = lshr i32 %62, %.04055
  %64 = and i32 %63, 1
  %.val53 = load ptr, ptr %49, align 8, !tbaa !25
  %65 = shl nsw i32 %59, 1
  %66 = or disjoint i32 %64, %65
  %67 = sext i32 %66 to i64
  %68 = getelementptr inbounds i32, ptr %.val53, i64 %67
  %69 = load i32, ptr %68, align 4, !tbaa !13
  %70 = add nsw i32 %69, -1
  store i32 %70, ptr %68, align 4, !tbaa !13
  %.not43 = icmp eq i32 %70, 0
  br i1 %.not43, label %71, label %78

71:                                               ; preds = %60
  %.val = load ptr, ptr %50, align 8, !tbaa !105
  %72 = sext i32 %59 to i64
  %73 = getelementptr inbounds %struct.Nf_Obj_t_, ptr %.val, i64 %72
  %74 = zext nneg i32 %64 to i64
  %75 = getelementptr inbounds nuw [2 x [2 x %struct.Nf_Mat_t_]], ptr %73, i64 0, i64 %74
  %76 = tail call i64 @Nf_MatchDeref_rec(ptr noundef nonnull %0, i32 noundef %59, i32 noundef %64, ptr noundef nonnull %75)
  %77 = add i64 %76, %.156
  br label %78

78:                                               ; preds = %60, %71
  %.2 = phi i64 [ %.156, %60 ], [ %77, %71 ]
  %79 = add nuw nsw i32 %.04055, 1
  %.val50 = load i32, ptr %45, align 4, !tbaa !13
  %80 = and i32 %.val50, 31
  %81 = icmp samesign ult i32 %79, %80
  br i1 %81, label %51, label %.critedge.loopexit, !llvm.loop !234

.critedge.loopexit:                               ; preds = %51, %78
  %.1.lcssa.ph = phi i64 [ %.2, %78 ], [ %.156, %51 ]
  %.pre = load i32, ptr %3, align 4
  br label %.critedge

.critedge:                                        ; preds = %.critedge.loopexit, %33
  %82 = phi i32 [ %5, %33 ], [ %.pre, %.critedge.loopexit ]
  %.1.lcssa = phi i64 [ 0, %33 ], [ %.1.lcssa.ph, %.critedge.loopexit ]
  %83 = and i32 %82, 1048575
  %84 = getelementptr i8, ptr %0, i64 40
  %.val51 = load ptr, ptr %84, align 8, !tbaa !62
  %85 = zext nneg i32 %83 to i64
  %86 = getelementptr inbounds nuw %struct.Mio_Cell2_t_, ptr %.val51, i64 %85, i32 4
  %87 = load i64, ptr %86, align 8, !tbaa !120
  %88 = add i64 %87, %.1.lcssa
  br label %89

89:                                               ; preds = %27, %.critedge, %23
  %.0 = phi i64 [ %26, %23 ], [ %88, %.critedge ], [ 0, %27 ]
  ret i64 %.0
}